Certificate:
    Data:
        Version: 3 (0x2)
        Serial Number: 1 (0x1)
        Signature Algorithm: sha256WithRSAEncryption
        Issuer: C=ca, ST=barcelona, L=bcn, O=VeritatAbsoluta, OU=Certificats, CN=veritat/emailAddress=veritat@edt.org
        Validity
            Not Before: Apr  6 07:09:42 2022 GMT
            Not After : Apr  3 07:09:42 2032 GMT
        Subject: C=CA, ST=Barcelona, L=Santaco, O=Escola del Treball, OU=edt, CN=papa
        Subject Public Key Info:
            Public Key Algorithm: rsaEncryption
                RSA Public-Key: (2048 bit)
                Modulus:
                    00:b6:ed:5f:97:46:c8:d6:7f:f0:cb:30:37:2b:b9:
                    69:29:ef:1f:cc:a7:ed:cd:54:8b:63:14:18:c7:18:
                    f5:f1:fd:bd:3e:00:cc:cc:86:41:f5:4b:bf:26:33:
                    75:1e:d9:31:ed:46:cb:a1:7f:11:50:73:81:b8:b4:
                    e7:68:5f:51:85:7c:a5:71:e2:82:88:77:a5:54:b8:
                    6e:f1:7e:09:c5:0f:de:af:5a:a7:83:a6:0f:3c:8e:
                    28:a2:af:57:e6:ad:16:77:3c:8f:63:fa:86:f3:01:
                    bb:4d:da:42:0e:f4:8c:ae:5e:3c:43:c1:32:d5:06:
                    d4:d4:d3:58:f2:84:f0:a7:26:ea:b6:cc:af:6b:16:
                    00:bc:91:bb:6b:6d:1d:c7:96:00:54:be:22:81:d8:
                    08:79:e7:bf:d8:8b:0a:05:d3:ac:1f:29:42:b9:16:
                    85:d0:c2:f7:f1:5f:ca:e2:42:cf:76:9d:a4:9e:ff:
                    4d:76:9c:1d:cd:3f:5f:59:5d:16:71:20:42:89:61:
                    b1:d9:43:85:a7:c7:8f:fa:fe:cf:41:b8:c2:c0:77:
                    0e:d3:c5:64:1d:52:18:fe:52:7f:5b:54:96:1c:b8:
                    66:01:96:a9:aa:b0:b3:49:ac:10:12:08:28:57:d0:
                    d7:bc:57:b4:13:85:8a:b3:90:f5:af:51:26:ab:35:
                    07:ed
                Exponent: 65537 (0x10001)
        X509v3 extensions:
            X509v3 Basic Constraints: 
                CA:FALSE
            Netscape Comment: 
                OpenSSL Generated Certificate
            X509v3 Subject Key Identifier: 
                E2:E9:B1:11:52:11:EF:9E:47:92:9E:C2:B8:C7:2C:01:64:14:C0:6E
            X509v3 Authority Key Identifier: 
                keyid:D5:D6:AC:6C:B1:6F:C6:6B:DD:24:2D:20:4C:B4:E2:8A:65:72:50:D7

    Signature Algorithm: sha256WithRSAEncryption
         15:67:01:b5:af:f3:2e:c1:12:8b:8a:c5:3e:88:28:20:91:4d:
         ad:34:39:19:05:3e:f1:74:68:e5:e5:c3:09:2e:34:4c:d2:26:
         74:98:6a:77:bd:85:c4:70:8e:6e:a9:16:9b:44:19:d2:68:28:
         5e:ae:44:c8:12:0c:68:04:09:a7:3d:65:c9:5b:f8:99:be:91:
         e7:b1:67:5a:5d:84:62:91:0f:49:af:c5:e4:49:c4:3c:61:86:
         be:c1:0a:bb:6c:0e:2a:50:c0:e9:7f:fb:7f:26:4c:79:47:e5:
         7b:d0:8a:d7:65:63:f0:01:33:49:72:b0:d5:2f:17:b2:65:74:
         7b:d4:80:98:31:ac:a3:6b:05:95:38:61:7f:72:a9:cd:0f:00:
         84:bd:fa:19:61:6b:c8:32:1f:34:9a:e5:67:86:c5:82:bf:34:
         79:81:ff:0c:31:1e:5e:55:26:17:15:47:a2:e0:72:ea:6b:b6:
         c7:13:df:62:2d:23:15:5d:15:8d:05:e7:e5:c3:4e:61:42:1c:
         ff:02:26:a6:fd:2c:5f:af:b6:ed:9c:94:95:39:07:3f:b5:14:
         89:70:aa:37:7b:81:14:04:2f:24:f5:8a:57:46:2d:af:70:b5:
         17:8a:63:0c:0a:35:cb:13:eb:2c:dd:14:45:a1:82:c9:4c:06:
         7a:15:80:d2
-----BEGIN CERTIFICATE-----
MIID9TCCAt2gAwIBAgIBATANBgkqhkiG9w0BAQsFADCBkTELMAkGA1UEBhMCY2Ex
EjAQBgNVBAgMCWJhcmNlbG9uYTEMMAoGA1UEBwwDYmNuMRgwFgYDVQQKDA9WZXJp
dGF0QWJzb2x1dGExFDASBgNVBAsMC0NlcnRpZmljYXRzMRAwDgYDVQQDDAd2ZXJp
dGF0MR4wHAYJKoZIhvcNAQkBFg92ZXJpdGF0QGVkdC5vcmcwHhcNMjIwNDA2MDcw
OTQyWhcNMzIwNDAzMDcwOTQyWjBtMQswCQYDVQQGEwJDQTESMBAGA1UECAwJQmFy
Y2Vsb25hMRAwDgYDVQQHDAdTYW50YWNvMRswGQYDVQQKDBJFc2NvbGEgZGVsIFRy
ZWJhbGwxDDAKBgNVBAsMA2VkdDENMAsGA1UEAwwEcGFwYTCCASIwDQYJKoZIhvcN
AQEBBQADggEPADCCAQoCggEBALbtX5dGyNZ/8MswNyu5aSnvH8yn7c1Ui2MUGMcY
9fH9vT4AzMyGQfVLvyYzdR7ZMe1Gy6F/EVBzgbi052hfUYV8pXHigoh3pVS4bvF+
CcUP3q9ap4OmDzyOKKKvV+atFnc8j2P6hvMBu03aQg70jK5ePEPBMtUG1NTTWPKE
8Kcm6rbMr2sWALyRu2ttHceWAFS+IoHYCHnnv9iLCgXTrB8pQrkWhdDC9/FfyuJC
z3adpJ7/TXacHc0/X1ldFnEgQolhsdlDhafHj/r+z0G4wsB3DtPFZB1SGP5Sf1tU
lhy4ZgGWqaqws0msEBIIKFfQ17xXtBOFirOQ9a9RJqs1B+0CAwEAAaN7MHkwCQYD
VR0TBAIwADAsBglghkgBhvhCAQ0EHxYdT3BlblNTTCBHZW5lcmF0ZWQgQ2VydGlm
aWNhdGUwHQYDVR0OBBYEFOLpsRFSEe+eR5KewrjHLAFkFMBuMB8GA1UdIwQYMBaA
FNXWrGyxb8Zr3SQtIEy04oplclDXMA0GCSqGSIb3DQEBCwUAA4IBAQAVZwG1r/Mu
wRKLisU+iCggkU2tNDkZBT7xdGjl5cMJLjRM0iZ0mGp3vYXEcI5uqRabRBnSaChe
rkTIEgxoBAmnPWXJW/iZvpHnsWdaXYRikQ9Jr8XkScQ8YYa+wQq7bA4qUMDpf/t/
Jkx5R+V70IrXZWPwATNJcrDVLxeyZXR71ICYMayjawWVOGF/cqnNDwCEvfoZYWvI
Mh80muVnhsWCvzR5gf8MMR5eVSYXFUei4HLqa7bHE99iLSMVXRWNBeflw05hQhz/
Aiam/Sxfr7btnJSVOQc/tRSJcKo3e4EUBC8k9YpXRi2vcLUXimMMCjXLE+ss3RRF
oYLJTAZ6FYDS
-----END CERTIFICATE-----
