Certificate:
    Data:
        Version: 3 (0x2)
        Serial Number: 2 (0x2)
        Signature Algorithm: sha256WithRSAEncryption
        Issuer: C=ca, ST=barcelona, L=bcn, O=VeritatAbsoluta, OU=Certificats, CN=veritat/emailAddress=veritat@edt.org
        Validity
            Not Before: Apr  6 07:26:59 2022 GMT
            Not After : Apr  3 07:26:59 2032 GMT
        Subject: C=CA, ST=Barcelona, L=Santaco, O=Escola del Treball, CN=inf
        Subject Public Key Info:
            Public Key Algorithm: rsaEncryption
                RSA Public-Key: (2048 bit)
                Modulus:
                    00:b6:ed:5f:97:46:c8:d6:7f:f0:cb:30:37:2b:b9:
                    69:29:ef:1f:cc:a7:ed:cd:54:8b:63:14:18:c7:18:
                    f5:f1:fd:bd:3e:00:cc:cc:86:41:f5:4b:bf:26:33:
                    75:1e:d9:31:ed:46:cb:a1:7f:11:50:73:81:b8:b4:
                    e7:68:5f:51:85:7c:a5:71:e2:82:88:77:a5:54:b8:
                    6e:f1:7e:09:c5:0f:de:af:5a:a7:83:a6:0f:3c:8e:
                    28:a2:af:57:e6:ad:16:77:3c:8f:63:fa:86:f3:01:
                    bb:4d:da:42:0e:f4:8c:ae:5e:3c:43:c1:32:d5:06:
                    d4:d4:d3:58:f2:84:f0:a7:26:ea:b6:cc:af:6b:16:
                    00:bc:91:bb:6b:6d:1d:c7:96:00:54:be:22:81:d8:
                    08:79:e7:bf:d8:8b:0a:05:d3:ac:1f:29:42:b9:16:
                    85:d0:c2:f7:f1:5f:ca:e2:42:cf:76:9d:a4:9e:ff:
                    4d:76:9c:1d:cd:3f:5f:59:5d:16:71:20:42:89:61:
                    b1:d9:43:85:a7:c7:8f:fa:fe:cf:41:b8:c2:c0:77:
                    0e:d3:c5:64:1d:52:18:fe:52:7f:5b:54:96:1c:b8:
                    66:01:96:a9:aa:b0:b3:49:ac:10:12:08:28:57:d0:
                    d7:bc:57:b4:13:85:8a:b3:90:f5:af:51:26:ab:35:
                    07:ed
                Exponent: 65537 (0x10001)
        X509v3 extensions:
            X509v3 Subject Key Identifier: 
                E2:E9:B1:11:52:11:EF:9E:47:92:9E:C2:B8:C7:2C:01:64:14:C0:6E
            X509v3 Authority Key Identifier: 
                keyid:D5:D6:AC:6C:B1:6F:C6:6B:DD:24:2D:20:4C:B4:E2:8A:65:72:50:D7

            X509v3 Basic Constraints: critical
                CA:TRUE
            X509v3 Key Usage: 
                Certificate Sign, CRL Sign
    Signature Algorithm: sha256WithRSAEncryption
         0c:b0:fe:a4:40:65:ac:5a:91:2e:fd:cb:28:44:2c:c5:24:39:
         d3:81:04:39:9b:f3:9d:96:fe:ec:8b:00:f9:bb:ff:43:47:28:
         57:65:8b:9d:90:aa:e2:91:b1:21:e4:1c:84:ff:c9:2c:4e:ce:
         dc:de:9c:a4:ed:99:10:67:8d:4f:aa:73:1d:9f:af:60:ca:1d:
         01:fe:5c:bc:d1:87:cc:78:e4:69:65:24:1e:e0:d0:24:4c:22:
         76:c0:7e:06:cc:95:3b:da:77:53:98:8c:6b:fe:be:19:1d:8f:
         ac:8c:31:5e:8c:f5:dd:d3:04:79:29:2b:70:ac:3a:77:a8:0d:
         ea:f9:e0:21:c1:8d:4b:cc:70:12:ae:6c:67:c0:c4:8c:0c:ad:
         65:3b:e9:46:c5:24:a0:d0:2f:8e:d9:07:43:78:85:9d:7b:c3:
         68:31:60:25:11:20:aa:24:ba:c3:08:33:4e:71:32:5f:55:a8:
         e9:37:08:23:0c:e8:d7:29:87:ee:21:05:37:59:6a:a0:78:5c:
         dc:b6:f9:cf:eb:3b:ae:2a:ac:c0:6b:16:f7:51:7a:1f:27:fb:
         cb:43:82:be:f6:6e:b6:81:07:6a:1f:26:7e:6a:32:05:e1:3e:
         34:34:70:95:38:db:3b:2e:6c:60:20:c0:ac:be:6b:09:0d:ff:
         c4:d1:6f:1c
-----BEGIN CERTIFICATE-----
MIIDyzCCArOgAwIBAgIBAjANBgkqhkiG9w0BAQsFADCBkTELMAkGA1UEBhMCY2Ex
EjAQBgNVBAgMCWJhcmNlbG9uYTEMMAoGA1UEBwwDYmNuMRgwFgYDVQQKDA9WZXJp
dGF0QWJzb2x1dGExFDASBgNVBAsMC0NlcnRpZmljYXRzMRAwDgYDVQQDDAd2ZXJp
dGF0MR4wHAYJKoZIhvcNAQkBFg92ZXJpdGF0QGVkdC5vcmcwHhcNMjIwNDA2MDcy
NjU5WhcNMzIwNDAzMDcyNjU5WjBeMQswCQYDVQQGEwJDQTESMBAGA1UECAwJQmFy
Y2Vsb25hMRAwDgYDVQQHDAdTYW50YWNvMRswGQYDVQQKDBJFc2NvbGEgZGVsIFRy
ZWJhbGwxDDAKBgNVBAMMA2luZjCCASIwDQYJKoZIhvcNAQEBBQADggEPADCCAQoC
ggEBALbtX5dGyNZ/8MswNyu5aSnvH8yn7c1Ui2MUGMcY9fH9vT4AzMyGQfVLvyYz
dR7ZMe1Gy6F/EVBzgbi052hfUYV8pXHigoh3pVS4bvF+CcUP3q9ap4OmDzyOKKKv
V+atFnc8j2P6hvMBu03aQg70jK5ePEPBMtUG1NTTWPKE8Kcm6rbMr2sWALyRu2tt
HceWAFS+IoHYCHnnv9iLCgXTrB8pQrkWhdDC9/FfyuJCz3adpJ7/TXacHc0/X1ld
FnEgQolhsdlDhafHj/r+z0G4wsB3DtPFZB1SGP5Sf1tUlhy4ZgGWqaqws0msEBII
KFfQ17xXtBOFirOQ9a9RJqs1B+0CAwEAAaNgMF4wHQYDVR0OBBYEFOLpsRFSEe+e
R5KewrjHLAFkFMBuMB8GA1UdIwQYMBaAFNXWrGyxb8Zr3SQtIEy04oplclDXMA8G
A1UdEwEB/wQFMAMBAf8wCwYDVR0PBAQDAgEGMA0GCSqGSIb3DQEBCwUAA4IBAQAM
sP6kQGWsWpEu/csoRCzFJDnTgQQ5m/Odlv7siwD5u/9DRyhXZYudkKrikbEh5ByE
/8ksTs7c3pyk7ZkQZ41PqnMdn69gyh0B/ly80YfMeORpZSQe4NAkTCJ2wH4GzJU7
2ndTmIxr/r4ZHY+sjDFejPXd0wR5KStwrDp3qA3q+eAhwY1LzHASrmxnwMSMDK1l
O+lGxSSg0C+O2QdDeIWde8NoMWAlESCqJLrDCDNOcTJfVajpNwgjDOjXKYfuIQU3
WWqgeFzctvnP6zuuKqzAaxb3UXofJ/vLQ4K+9m62gQdqHyZ+ajIF4T40NHCVONs7
LmxgIMCsvmsJDf/E0W8c
-----END CERTIFICATE-----
